; ModuleID = '16/705.c'
source_filename = "16/705.c"
target datalayout = "e-m:e-p270:32:32-p271:32:32-p272:64:64-i64:64-f80:128-n8:16:32:64-S128"
target triple = "x86_64-pc-linux-gnu"

@.str = private unnamed_addr constant [3 x i8] c"%d\00", align 1
@.str.1 = private unnamed_addr constant [4 x i8] c"%d\0A\00", align 1
@.str.2 = private unnamed_addr constant [6 x i8] c"%d%d\0A\00", align 1
@.str.3 = private unnamed_addr constant [8 x i8] c"%d%d%d\0A\00", align 1
@.str.4 = private unnamed_addr constant [10 x i8] c"%d%d%d%d\0A\00", align 1
@.str.5 = private unnamed_addr constant [7 x i8] c"00001\0A\00", align 1

; Function Attrs: noinline nounwind uwtable
define dso_local i32 @main() #0 {
  %1 = alloca i32, align 4
  %2 = alloca i32, align 4
  %3 = alloca i32, align 4
  %4 = alloca i32, align 4
  %5 = alloca i32, align 4
  %6 = alloca i32, align 4
  store i32 0, i32* %1, align 4
  %7 = call i32 (i8*, ...) @__isoc99_scanf(i8* getelementptr inbounds ([3 x i8], [3 x i8]* @.str, i64 0, i64 0), i32* %2)
  %8 = load i32, i32* %2, align 4
  %9 = sdiv i32 %8, 10000
  %10 = icmp eq i32 %9, 0
  br i1 %10, label %11, label %83

11:                                               ; preds = %0
  %12 = load i32, i32* %2, align 4
  %13 = sdiv i32 %12, 1000
  %14 = icmp eq i32 %13, 0
  br i1 %14, label %15, label %53

15:                                               ; preds = %11
  %16 = load i32, i32* %2, align 4
  %17 = sdiv i32 %16, 100
  %18 = icmp eq i32 %17, 0
  br i1 %18, label %19, label %35

19:                                               ; preds = %15
  %20 = load i32, i32* %2, align 4
  %21 = sdiv i32 %20, 10
  %22 = icmp eq i32 %21, 0
  br i1 %22, label %23, label %26

23:                                               ; preds = %19
  %24 = load i32, i32* %2, align 4
  %25 = call i32 (i8*, ...) @printf(i8* getelementptr inbounds ([4 x i8], [4 x i8]* @.str.1, i64 0, i64 0), i32 %24)
  br label %34

26:                                               ; preds = %19
  %27 = load i32, i32* %2, align 4
  %28 = srem i32 %27, 10
  store i32 %28, i32* %3, align 4
  %29 = load i32, i32* %2, align 4
  %30 = sdiv i32 %29, 10
  store i32 %30, i32* %4, align 4
  %31 = load i32, i32* %3, align 4
  %32 = load i32, i32* %4, align 4
  %33 = call i32 (i8*, ...) @printf(i8* getelementptr inbounds ([6 x i8], [6 x i8]* @.str.2, i64 0, i64 0), i32 %31, i32 %32)
  br label %34

34:                                               ; preds = %26, %23
  br label %52

35:                                               ; preds = %15
  %36 = load i32, i32* %2, align 4
  %37 = sdiv i32 %36, 100
  store i32 %37, i32* %4, align 4
  %38 = load i32, i32* %2, align 4
  %39 = load i32, i32* %4, align 4
  %40 = mul nsw i32 %39, 100
  %41 = sub nsw i32 %38, %40
  %42 = sdiv i32 %41, 10
  store i32 %42, i32* %5, align 4
  %43 = load i32, i32* %2, align 4
  %44 = load i32, i32* %4, align 4
  %45 = mul nsw i32 %44, 100
  %46 = sub nsw i32 %43, %45
  %47 = srem i32 %46, 10
  store i32 %47, i32* %3, align 4
  %48 = load i32, i32* %3, align 4
  %49 = load i32, i32* %5, align 4
  %50 = load i32, i32* %4, align 4
  %51 = call i32 (i8*, ...) @printf(i8* getelementptr inbounds ([8 x i8], [8 x i8]* @.str.3, i64 0, i64 0), i32 %48, i32 %49, i32 %50)
  br label %52

52:                                               ; preds = %35, %34
  br label %82

53:                                               ; preds = %11
  %54 = load i32, i32* %2, align 4
  %55 = sdiv i32 %54, 1000
  store i32 %55, i32* %3, align 4
  %56 = load i32, i32* %2, align 4
  %57 = load i32, i32* %3, align 4
  %58 = mul nsw i32 %57, 1000
  %59 = sub nsw i32 %56, %58
  %60 = sdiv i32 %59, 100
  store i32 %60, i32* %4, align 4
  %61 = load i32, i32* %2, align 4
  %62 = load i32, i32* %3, align 4
  %63 = mul nsw i32 %62, 1000
  %64 = sub nsw i32 %61, %63
  %65 = load i32, i32* %4, align 4
  %66 = mul nsw i32 %65, 100
  %67 = sub nsw i32 %64, %66
  %68 = sdiv i32 %67, 10
  store i32 %68, i32* %5, align 4
  %69 = load i32, i32* %2, align 4
  %70 = load i32, i32* %3, align 4
  %71 = mul nsw i32 %70, 1000
  %72 = sub nsw i32 %69, %71
  %73 = load i32, i32* %4, align 4
  %74 = mul nsw i32 %73, 100
  %75 = sub nsw i32 %72, %74
  %76 = srem i32 %75, 10
  store i32 %76, i32* %6, align 4
  %77 = load i32, i32* %6, align 4
  %78 = load i32, i32* %5, align 4
  %79 = load i32, i32* %4, align 4
  %80 = load i32, i32* %3, align 4
  %81 = call i32 (i8*, ...) @printf(i8* getelementptr inbounds ([10 x i8], [10 x i8]* @.str.4, i64 0, i64 0), i32 %77, i32 %78, i32 %79, i32 %80)
  br label %82

82:                                               ; preds = %53, %52
  br label %85

83:                                               ; preds = %0
  %84 = call i32 (i8*, ...) @printf(i8* getelementptr inbounds ([7 x i8], [7 x i8]* @.str.5, i64 0, i64 0))
  br label %85

85:                                               ; preds = %83, %82
  ret i32 0
}

declare dso_local i32 @__isoc99_scanf(i8*, ...) #1

declare dso_local i32 @printf(i8*, ...) #1


!llvm.module.flags = !{!0}
!llvm.ident = !{!1}

!0 = !{i32 1, !"wchar_size", i32 4}
!1 = !{!"clang version 10.0.0-4ubuntu1 "}
